target datalayout = "e-m:e-p270:32:32-p271:32:32-p272:64:64-i64:64-i128:128-f80:128-n8:16:32:64-S128"
target triple = "x86_64-pc-linux-gnu"

; Function Attrs: mustprogress nounwind uwtable
define internal noundef double @_ZN2cvL13saturate_castIdEET_d(double noundef %0) #4 {
  %2 = alloca double, align 8
  store double %0, ptr %2, align 8
  %3 = load double, ptr %2, align 8
  ret double %3
}

; Function Attrs: mustprogress uwtable
define internal void @_ZN2cvL11randnScale_IddEEvPKfPT_iiPKT0_S7_b(ptr noundef %0, ptr noundef %1, i32 noundef %2, i32 noundef %3, ptr noundef %4, ptr noundef %5, i1 noundef zeroext %6) #0 {
  %8 = alloca ptr, align 8
  %9 = alloca ptr, align 8
  %10 = alloca i32, align 4
  %11 = alloca i32, align 4
  %12 = alloca ptr, align 8
  %13 = alloca ptr, align 8
  %14 = alloca i8, align 1
  %15 = alloca i32, align 4
  %16 = alloca i32, align 4
  %17 = alloca i32, align 4
  %18 = alloca double, align 8
  %19 = alloca double, align 8
  %20 = alloca double, align 8
  store ptr %0, ptr %8, align 8
  store ptr %1, ptr %9, align 8
  store i32 %2, ptr %10, align 4
  store i32 %3, ptr %11, align 4
  store ptr %4, ptr %12, align 8
  store ptr %5, ptr %13, align 8
  %21 = zext i1 %6 to i8
  store i8 %21, ptr %14, align 1
  %22 = load i8, ptr %14, align 1
  %23 = trunc i8 %22 to i1
  br i1 %23, label %107, label %24

24:                                               ; preds = %7
  %25 = load i32, ptr %11, align 4
  %26 = icmp eq i32 %25, 1
  br i1 %26, label %27, label %57

27:                                               ; preds = %24
  %28 = load ptr, ptr %12, align 8
  %29 = getelementptr inbounds double, ptr %28, i64 0
  %30 = load double, ptr %29, align 8
  store double %30, ptr %18, align 8
  %31 = load ptr, ptr %13, align 8
  %32 = getelementptr inbounds double, ptr %31, i64 0
  %33 = load double, ptr %32, align 8
  store double %33, ptr %19, align 8
  store i32 0, ptr %15, align 4
  br label %34

34:                                               ; preds = %53, %27
  %35 = load i32, ptr %15, align 4
  %36 = load i32, ptr %10, align 4
  %37 = icmp slt i32 %35, %36
  br i1 %37, label %38, label %56

38:                                               ; preds = %34
  %39 = load ptr, ptr %8, align 8
  %40 = load i32, ptr %15, align 4
  %41 = sext i32 %40 to i64
  %42 = getelementptr inbounds float, ptr %39, i64 %41
  %43 = load float, ptr %42, align 4
  %44 = fpext float %43 to double
  %45 = load double, ptr %19, align 8
  %46 = load double, ptr %18, align 8
  %47 = call double @llvm.fmuladd.f64(double %44, double %45, double %46)
  %48 = call noundef double @_ZN2cvL13saturate_castIdEET_d(double noundef %47)
  %49 = load ptr, ptr %9, align 8
  %50 = load i32, ptr %15, align 4
  %51 = sext i32 %50 to i64
  %52 = getelementptr inbounds double, ptr %49, i64 %51
  store double %48, ptr %52, align 8
  br label %53

53:                                               ; preds = %38
  %54 = load i32, ptr %15, align 4
  %55 = add nsw i32 %54, 1
  store i32 %55, ptr %15, align 4
  br label %34, !llvm.loop !120

56:                                               ; preds = %34
  br label %106

57:                                               ; preds = %24
  store i32 0, ptr %15, align 4
  br label %58

58:                                               ; preds = %94, %57
  %59 = load i32, ptr %15, align 4
  %60 = load i32, ptr %10, align 4
  %61 = icmp slt i32 %59, %60
  br i1 %61, label %62, label %105

62:                                               ; preds = %58
  store i32 0, ptr %17, align 4
  br label %63

63:                                               ; preds = %90, %62
  %64 = load i32, ptr %17, align 4
  %65 = load i32, ptr %11, align 4
  %66 = icmp slt i32 %64, %65
  br i1 %66, label %67, label %93

67:                                               ; preds = %63
  %68 = load ptr, ptr %8, align 8
  %69 = load i32, ptr %17, align 4
  %70 = sext i32 %69 to i64
  %71 = getelementptr inbounds float, ptr %68, i64 %70
  %72 = load float, ptr %71, align 4
  %73 = fpext float %72 to double
  %74 = load ptr, ptr %13, align 8
  %75 = load i32, ptr %17, align 4
  %76 = sext i32 %75 to i64
  %77 = getelementptr inbounds double, ptr %74, i64 %76
  %78 = load double, ptr %77, align 8
  %79 = load ptr, ptr %12, align 8
  %80 = load i32, ptr %17, align 4
  %81 = sext i32 %80 to i64
  %82 = getelementptr inbounds double, ptr %79, i64 %81
  %83 = load double, ptr %82, align 8
  %84 = call double @llvm.fmuladd.f64(double %73, double %78, double %83)
  %85 = call noundef double @_ZN2cvL13saturate_castIdEET_d(double noundef %84)
  %86 = load ptr, ptr %9, align 8
  %87 = load i32, ptr %17, align 4
  %88 = sext i32 %87 to i64
  %89 = getelementptr inbounds double, ptr %86, i64 %88
  store double %85, ptr %89, align 8
  br label %90

90:                                               ; preds = %67
  %91 = load i32, ptr %17, align 4
  %92 = add nsw i32 %91, 1
  store i32 %92, ptr %17, align 4
  br label %63, !llvm.loop !121

93:                                               ; preds = %63
  br label %94

94:                                               ; preds = %93
  %95 = load i32, ptr %15, align 4
  %96 = add nsw i32 %95, 1
  store i32 %96, ptr %15, align 4
  %97 = load i32, ptr %11, align 4
  %98 = load ptr, ptr %8, align 8
  %99 = sext i32 %97 to i64
  %100 = getelementptr inbounds float, ptr %98, i64 %99
  store ptr %100, ptr %8, align 8
  %101 = load i32, ptr %11, align 4
  %102 = load ptr, ptr %9, align 8
  %103 = sext i32 %101 to i64
  %104 = getelementptr inbounds double, ptr %102, i64 %103
  store ptr %104, ptr %9, align 8
  br label %58, !llvm.loop !122

105:                                              ; preds = %58
  br label %106

106:                                              ; preds = %105, %56
  br label %171

107:                                              ; preds = %7
  store i32 0, ptr %15, align 4
  br label %108

108:                                              ; preds = %159, %107
  %109 = load i32, ptr %15, align 4
  %110 = load i32, ptr %10, align 4
  %111 = icmp slt i32 %109, %110
  br i1 %111, label %112, label %170

112:                                              ; preds = %108
  store i32 0, ptr %16, align 4
  br label %113

113:                                              ; preds = %155, %112
  %114 = load i32, ptr %16, align 4
  %115 = load i32, ptr %11, align 4
  %116 = icmp slt i32 %114, %115
  br i1 %116, label %117, label %158

117:                                              ; preds = %113
  %118 = load ptr, ptr %12, align 8
  %119 = load i32, ptr %16, align 4
  %120 = sext i32 %119 to i64
  %121 = getelementptr inbounds double, ptr %118, i64 %120
  %122 = load double, ptr %121, align 8
  store double %122, ptr %20, align 8
  store i32 0, ptr %17, align 4
  br label %123

123:                                              ; preds = %145, %117
  %124 = load i32, ptr %17, align 4
  %125 = load i32, ptr %11, align 4
  %126 = icmp slt i32 %124, %125
  br i1 %126, label %127, label %148

127:                                              ; preds = %123
  %128 = load ptr, ptr %8, align 8
  %129 = load i32, ptr %17, align 4
  %130 = sext i32 %129 to i64
  %131 = getelementptr inbounds float, ptr %128, i64 %130
  %132 = load float, ptr %131, align 4
  %133 = fpext float %132 to double
  %134 = load ptr, ptr %13, align 8
  %135 = load i32, ptr %16, align 4
  %136 = load i32, ptr %11, align 4
  %137 = mul nsw i32 %135, %136
  %138 = load i32, ptr %17, align 4
  %139 = add nsw i32 %137, %138
  %140 = sext i32 %139 to i64
  %141 = getelementptr inbounds double, ptr %134, i64 %140
  %142 = load double, ptr %141, align 8
  %143 = load double, ptr %20, align 8
  %144 = call double @llvm.fmuladd.f64(double %133, double %142, double %143)
  store double %144, ptr %20, align 8
  br label %145

145:                                              ; preds = %127
  %146 = load i32, ptr %17, align 4
  %147 = add nsw i32 %146, 1
  store i32 %147, ptr %17, align 4
  br label %123, !llvm.loop !123

148:                                              ; preds = %123
  %149 = load double, ptr %20, align 8
  %150 = call noundef double @_ZN2cvL13saturate_castIdEET_d(double noundef %149)
  %151 = load ptr, ptr %9, align 8
  %152 = load i32, ptr %16, align 4
  %153 = sext i32 %152 to i64
  %154 = getelementptr inbounds double, ptr %151, i64 %153
  store double %150, ptr %154, align 8
  br label %155

155:                                              ; preds = %148
  %156 = load i32, ptr %16, align 4
  %157 = add nsw i32 %156, 1
  store i32 %157, ptr %16, align 4
  br label %113, !llvm.loop !124

158:                                              ; preds = %113
  br label %159

159:                                              ; preds = %158
  %160 = load i32, ptr %15, align 4
  %161 = add nsw i32 %160, 1
  store i32 %161, ptr %15, align 4
  %162 = load i32, ptr %11, align 4
  %163 = load ptr, ptr %8, align 8
  %164 = sext i32 %162 to i64
  %165 = getelementptr inbounds float, ptr %163, i64 %164
  store ptr %165, ptr %8, align 8
  %166 = load i32, ptr %11, align 4
  %167 = load ptr, ptr %9, align 8
  %168 = sext i32 %166 to i64
  %169 = getelementptr inbounds double, ptr %167, i64 %168
  store ptr %169, ptr %9, align 8
  br label %108, !llvm.loop !125

170:                                              ; preds = %108
  br label %171

171:                                              ; preds = %170, %106
  ret void
}

; Function Attrs: mustprogress uwtable
define internal void @_ZN2cvL14randnScale_64fEPKfPdiiPKdS4_b(ptr noundef %0, ptr noundef %1, i32 noundef %2, i32 noundef %3, ptr noundef %4, ptr noundef %5, i1 noundef zeroext %6) #0 {
  %8 = alloca ptr, align 8
  %9 = alloca ptr, align 8
  %10 = alloca i32, align 4
  %11 = alloca i32, align 4
  %12 = alloca ptr, align 8
  %13 = alloca ptr, align 8
  %14 = alloca i8, align 1
  store ptr %0, ptr %8, align 8
  store ptr %1, ptr %9, align 8
  store i32 %2, ptr %10, align 4
  store i32 %3, ptr %11, align 4
  store ptr %4, ptr %12, align 8
  store ptr %5, ptr %13, align 8
  %15 = zext i1 %6 to i8
  store i8 %15, ptr %14, align 1
  %16 = load ptr, ptr %8, align 8
  %17 = load ptr, ptr %9, align 8
  %18 = load i32, ptr %10, align 4
  %19 = load i32, ptr %11, align 4
  %20 = load ptr, ptr %12, align 8
  %21 = load ptr, ptr %13, align 8
  %22 = load i8, ptr %14, align 1
  %23 = trunc i8 %22 to i1
  call void @_ZN2cvL11randnScale_IddEEvPKfPT_iiPKT0_S7_b(ptr noundef %16, ptr noundef %17, i32 noundef %18, i32 noundef %19, ptr noundef %20, ptr noundef %21, i1 noundef zeroext %23)
  ret void
}