; Function Attrs: mustprogress nofree norecurse nosync nounwind memory(readwrite, inaccessiblemem: none) uwtable
define internal void @_ZN2cvL14randnScale_64fEPKfPdiiPKdS4_b(ptr nocapture noundef readonly %0, ptr nocapture noundef writeonly %1, i32 noundef %2, i32 noundef %3, ptr nocapture noundef readonly %4, ptr nocapture noundef readonly %5, i1 noundef zeroext %6) #11 {
  br i1 %6, label %.preheader65.i, label %25

.preheader65.i:                                   ; preds = %7
  %8 = icmp sgt i32 %2, 0
  br i1 %8, label %.preheader.lr.ph.i, label %_ZN2cvL11randnScale_IddEEvPKfPT_iiPKT0_S7_b.exit

.preheader.lr.ph.i:                               ; preds = %.preheader65.i
  %9 = icmp sgt i32 %3, 0
  %10 = sext i32 %3 to i64
  br i1 %9, label %.preheader.us.preheader.i, label %_ZN2cvL11randnScale_IddEEvPKfPT_iiPKT0_S7_b.exit

.preheader.us.preheader.i:                        ; preds = %.preheader.lr.ph.i
  %11 = zext nneg i32 %3 to i64
  br label %.preheader.us.i

.preheader.us.i:                                  ; preds = %._crit_edge80.split.us.us.i, %.preheader.us.preheader.i
  %.184.us.i = phi ptr [ %23, %._crit_edge80.split.us.us.i ], [ %0, %.preheader.us.preheader.i ]
  %.15783.us.i = phi ptr [ %24, %._crit_edge80.split.us.us.i ], [ %1, %.preheader.us.preheader.i ]
  %.282.us.i = phi i32 [ %22, %._crit_edge80.split.us.us.i ], [ 0, %.preheader.us.preheader.i ]
  br label %.lr.ph77.us.us.i

.lr.ph77.us.us.i:                                 ; preds = %._crit_edge.us81.us.i, %.preheader.us.i
  %indvars.iv101.i = phi i64 [ %indvars.iv.next102.i, %._crit_edge.us81.us.i ], [ 0, %.preheader.us.i ]
  %12 = getelementptr inbounds double, ptr %4, i64 %indvars.iv101.i
  %13 = load double, ptr %12, align 8
  %14 = mul nuw nsw i64 %indvars.iv101.i, %11
  %invariant.gep.i = getelementptr inbounds double, ptr %5, i64 %14
  br label %15

15:                                               ; preds = %15, %.lr.ph77.us.us.i
  %indvars.iv96.i = phi i64 [ %indvars.iv.next97.i, %15 ], [ 0, %.lr.ph77.us.us.i ]
  %.076.us.us.i = phi double [ %20, %15 ], [ %13, %.lr.ph77.us.us.i ]
  %16 = getelementptr inbounds float, ptr %.184.us.i, i64 %indvars.iv96.i
  %17 = load float, ptr %16, align 4
  %18 = fpext float %17 to double
  %gep.i = getelementptr inbounds double, ptr %invariant.gep.i, i64 %indvars.iv96.i
  %19 = load double, ptr %gep.i, align 8
  %20 = tail call double @llvm.fmuladd.f64(double %18, double %19, double %.076.us.us.i)
  %indvars.iv.next97.i = add nuw nsw i64 %indvars.iv96.i, 1
  %exitcond100.not.i = icmp eq i64 %indvars.iv.next97.i, %11
  br i1 %exitcond100.not.i, label %._crit_edge.us81.us.i, label %15, !llvm.loop !138

._crit_edge.us81.us.i:                            ; preds = %15
  %21 = getelementptr inbounds double, ptr %.15783.us.i, i64 %indvars.iv101.i
  store double %20, ptr %21, align 8
  %indvars.iv.next102.i = add nuw nsw i64 %indvars.iv101.i, 1
  %exitcond105.not.i = icmp eq i64 %indvars.iv.next102.i, %11
  br i1 %exitcond105.not.i, label %._crit_edge80.split.us.us.i, label %.lr.ph77.us.us.i, !llvm.loop !139

._crit_edge80.split.us.us.i:                      ; preds = %._crit_edge.us81.us.i
  %22 = add nuw nsw i32 %.282.us.i, 1
  %23 = getelementptr inbounds float, ptr %.184.us.i, i64 %10
  %24 = getelementptr inbounds double, ptr %.15783.us.i, i64 %10
  %exitcond106.not.i = icmp eq i32 %22, %2
  br i1 %exitcond106.not.i, label %_ZN2cvL11randnScale_IddEEvPKfPT_iiPKT0_S7_b.exit, label %.preheader.us.i, !llvm.loop !140

25:                                               ; preds = %7
  %26 = icmp eq i32 %3, 1
  br i1 %26, label %43, label %.preheader68.i

.preheader68.i:                                   ; preds = %25
  %27 = icmp sgt i32 %2, 0
  br i1 %27, label %.preheader67.lr.ph.i, label %_ZN2cvL11randnScale_IddEEvPKfPT_iiPKT0_S7_b.exit

.preheader67.lr.ph.i:                             ; preds = %.preheader68.i
  %28 = icmp sgt i32 %3, 0
  %29 = sext i32 %3 to i64
  br i1 %28, label %.preheader67.us.preheader.i, label %_ZN2cvL11randnScale_IddEEvPKfPT_iiPKT0_S7_b.exit

.preheader67.us.preheader.i:                      ; preds = %.preheader67.lr.ph.i
  %wide.trip.count.i = zext nneg i32 %3 to i64
  br label %.preheader67.us.i

.preheader67.us.i:                                ; preds = %._crit_edge.us.i, %.preheader67.us.preheader.i
  %.05573.us.i = phi ptr [ %41, %._crit_edge.us.i ], [ %0, %.preheader67.us.preheader.i ]
  %.05672.us.i = phi ptr [ %42, %._crit_edge.us.i ], [ %1, %.preheader67.us.preheader.i ]
  %.16271.us.i = phi i32 [ %40, %._crit_edge.us.i ], [ 0, %.preheader67.us.preheader.i ]
  br label %30

30:                                               ; preds = %30, %.preheader67.us.i
  %indvars.iv.i = phi i64 [ 0, %.preheader67.us.i ], [ %indvars.iv.next.i, %30 ]
  %31 = getelementptr inbounds float, ptr %.05573.us.i, i64 %indvars.iv.i
  %32 = load float, ptr %31, align 4
  %33 = fpext float %32 to double
  %34 = getelementptr inbounds double, ptr %5, i64 %indvars.iv.i
  %35 = load double, ptr %34, align 8
  %36 = getelementptr inbounds double, ptr %4, i64 %indvars.iv.i
  %37 = load double, ptr %36, align 8
  %38 = tail call double @llvm.fmuladd.f64(double %33, double %35, double %37)
  %39 = getelementptr inbounds double, ptr %.05672.us.i, i64 %indvars.iv.i
  store double %38, ptr %39, align 8
  %indvars.iv.next.i = add nuw nsw i64 %indvars.iv.i, 1
  %exitcond.not.i = icmp eq i64 %indvars.iv.next.i, %wide.trip.count.i
  br i1 %exitcond.not.i, label %._crit_edge.us.i, label %30, !llvm.loop !141

._crit_edge.us.i:                                 ; preds = %30
  %40 = add nuw nsw i32 %.16271.us.i, 1
  %41 = getelementptr inbounds float, ptr %.05573.us.i, i64 %29
  %42 = getelementptr inbounds double, ptr %.05672.us.i, i64 %29
  %exitcond90.not.i = icmp eq i32 %40, %2
  br i1 %exitcond90.not.i, label %_ZN2cvL11randnScale_IddEEvPKfPT_iiPKT0_S7_b.exit, label %.preheader67.us.i, !llvm.loop !142

43:                                               ; preds = %25
  %44 = load double, ptr %4, align 8
  %45 = load double, ptr %5, align 8
  %46 = icmp sgt i32 %2, 0
  br i1 %46, label %.lr.ph.preheader.i, label %_ZN2cvL11randnScale_IddEEvPKfPT_iiPKT0_S7_b.exit

.lr.ph.preheader.i:                               ; preds = %43
  %wide.trip.count94.i = zext nneg i32 %2 to i64
  br label %.lr.ph.i

.lr.ph.i:                                         ; preds = %.lr.ph.i, %.lr.ph.preheader.i
  %indvars.iv91.i = phi i64 [ 0, %.lr.ph.preheader.i ], [ %indvars.iv.next92.i, %.lr.ph.i ]
  %47 = getelementptr inbounds float, ptr %0, i64 %indvars.iv91.i
  %48 = load float, ptr %47, align 4
  %49 = fpext float %48 to double
  %50 = tail call double @llvm.fmuladd.f64(double %49, double %45, double %44)
  %51 = getelementptr inbounds double, ptr %1, i64 %indvars.iv91.i
  store double %50, ptr %51, align 8
  %indvars.iv.next92.i = add nuw nsw i64 %indvars.iv91.i, 1
  %exitcond95.not.i = icmp eq i64 %indvars.iv.next92.i, %wide.trip.count94.i
  br i1 %exitcond95.not.i, label %_ZN2cvL11randnScale_IddEEvPKfPT_iiPKT0_S7_b.exit, label %.lr.ph.i, !llvm.loop !143

_ZN2cvL11randnScale_IddEEvPKfPT_iiPKT0_S7_b.exit: ; preds = %._crit_edge.us.i, %.lr.ph.i, %._crit_edge80.split.us.us.i, %.preheader65.i, %.preheader.lr.ph.i, %.preheader68.i, %.preheader67.lr.ph.i, %43
  ret void
}